target datalayout = "e-m:e-p270:32:32-p271:32:32-p272:64:64-i64:64-i128:128-f80:128-n8:16:32:64-S128"
target triple = "x86_64-pc-linux-gnu"

@.str.14 = private unnamed_addr constant [28 x i8] c"../openssl/test/http_test.c\00", align 1
@.str.46 = private unnamed_addr constant [5 x i8] c"host\00", align 1
@.str.49 = private unnamed_addr constant [33 x i8] c"sscanf(exp_port, \22%d\22, &exp_num)\00", align 1
@.str.50 = private unnamed_addr constant [2 x i8] c"1\00", align 1
@.str.51 = private unnamed_addr constant [3 x i8] c"%d\00", align 1
@.str.52 = private unnamed_addr constant [80 x i8] c"OSSL_HTTP_parse_url(url, &ssl, &user, &host, &port, &num, &path, &query, &frag)\00", align 1
@.str.53 = private unnamed_addr constant [9 x i8] c"exp_host\00", align 1
@.str.54 = private unnamed_addr constant [5 x i8] c"port\00", align 1
@.str.55 = private unnamed_addr constant [9 x i8] c"exp_port\00", align 1
@.str.56 = private unnamed_addr constant [4 x i8] c"num\00", align 1
@.str.57 = private unnamed_addr constant [8 x i8] c"exp_num\00", align 1
@.str.58 = private unnamed_addr constant [5 x i8] c"path\00", align 1
@.str.59 = private unnamed_addr constant [9 x i8] c"exp_path\00", align 1
@.str.60 = private unnamed_addr constant [4 x i8] c"ssl\00", align 1
@.str.61 = private unnamed_addr constant [8 x i8] c"exp_ssl\00", align 1
@.str.62 = private unnamed_addr constant [5 x i8] c"user\00", align 1
@.str.63 = private unnamed_addr constant [12 x i8] c"\22user:pass\22\00", align 1
@.str.64 = private unnamed_addr constant [10 x i8] c"user:pass\00", align 1
@.str.65 = private unnamed_addr constant [5 x i8] c"frag\00", align 1
@.str.66 = private unnamed_addr constant [5 x i8] c"\22fr\22\00", align 1
@.str.67 = private unnamed_addr constant [3 x i8] c"fr\00", align 1
@.str.68 = private unnamed_addr constant [6 x i8] c"query\00", align 1
@.str.69 = private unnamed_addr constant [4 x i8] c"\22q\22\00", align 1
@.str.70 = private unnamed_addr constant [2 x i8] c"q\00", align 1

; Function Attrs: nounwind uwtable
define internal i32 @test_http_url_ok(ptr noundef %0, i32 noundef %1, ptr noundef %2, ptr noundef %3, ptr noundef %4) #0 {
  %6 = alloca i32, align 4
  %7 = alloca ptr, align 8
  %8 = alloca i32, align 4
  %9 = alloca ptr, align 8
  %10 = alloca ptr, align 8
  %11 = alloca ptr, align 8
  %12 = alloca ptr, align 8
  %13 = alloca ptr, align 8
  %14 = alloca ptr, align 8
  %15 = alloca ptr, align 8
  %16 = alloca ptr, align 8
  %17 = alloca ptr, align 8
  %18 = alloca i32, align 4
  %19 = alloca i32, align 4
  %20 = alloca i32, align 4
  %21 = alloca i32, align 4
  %22 = alloca i32, align 4
  store ptr %0, ptr %7, align 8, !tbaa !11
  store i32 %1, ptr %8, align 4, !tbaa !13
  store ptr %2, ptr %9, align 8, !tbaa !11
  store ptr %3, ptr %10, align 8, !tbaa !11
  store ptr %4, ptr %11, align 8, !tbaa !11
  call void @llvm.lifetime.start.p0(i64 8, ptr %12) #7
  call void @llvm.lifetime.start.p0(i64 8, ptr %13) #7
  call void @llvm.lifetime.start.p0(i64 8, ptr %14) #7
  call void @llvm.lifetime.start.p0(i64 8, ptr %15) #7
  call void @llvm.lifetime.start.p0(i64 8, ptr %16) #7
  call void @llvm.lifetime.start.p0(i64 8, ptr %17) #7
  call void @llvm.lifetime.start.p0(i64 4, ptr %18) #7
  call void @llvm.lifetime.start.p0(i64 4, ptr %19) #7
  call void @llvm.lifetime.start.p0(i64 4, ptr %20) #7
  call void @llvm.lifetime.start.p0(i64 4, ptr %21) #7
  %23 = load ptr, ptr %10, align 8, !tbaa !11
  %24 = call i32 (ptr, ptr, ...) @__isoc99_sscanf(ptr noundef %23, ptr noundef @.str.51, ptr noundef %18) #7
  %25 = call i32 @test_int_eq(ptr noundef @.str.14, i32 noundef 292, ptr noundef @.str.49, ptr noundef @.str.50, i32 noundef %24, i32 noundef 1)
  %26 = icmp ne i32 %25, 0
  br i1 %26, label %28, label %27

27:                                               ; preds = %5
  store i32 0, ptr %6, align 4
  store i32 1, ptr %22, align 4
  br label %103

28:                                               ; preds = %5
  %29 = load ptr, ptr %7, align 8, !tbaa !11
  %30 = call i32 @OSSL_HTTP_parse_url(ptr noundef %29, ptr noundef %20, ptr noundef %12, ptr noundef %13, ptr noundef %14, ptr noundef %19, ptr noundef %15, ptr noundef %16, ptr noundef %17)
  %31 = icmp ne i32 %30, 0
  %32 = zext i1 %31 to i32
  %33 = call i32 @test_true(ptr noundef @.str.14, i32 noundef 295, ptr noundef @.str.52, i32 noundef %32)
  %34 = icmp ne i32 %33, 0
  br i1 %34, label %35, label %60

35:                                               ; preds = %28
  %36 = load ptr, ptr %13, align 8, !tbaa !11
  %37 = load ptr, ptr %9, align 8, !tbaa !11
  %38 = call i32 @test_str_eq(ptr noundef @.str.14, i32 noundef 296, ptr noundef @.str.46, ptr noundef @.str.53, ptr noundef %36, ptr noundef %37)
  %39 = icmp ne i32 %38, 0
  br i1 %39, label %40, label %60

40:                                               ; preds = %35
  %41 = load ptr, ptr %14, align 8, !tbaa !11
  %42 = load ptr, ptr %10, align 8, !tbaa !11
  %43 = call i32 @test_str_eq(ptr noundef @.str.14, i32 noundef 297, ptr noundef @.str.54, ptr noundef @.str.55, ptr noundef %41, ptr noundef %42)
  %44 = icmp ne i32 %43, 0
  br i1 %44, label %45, label %60

45:                                               ; preds = %40
  %46 = load i32, ptr %19, align 4, !tbaa !13
  %47 = load i32, ptr %18, align 4, !tbaa !13
  %48 = call i32 @test_int_eq(ptr noundef @.str.14, i32 noundef 298, ptr noundef @.str.56, ptr noundef @.str.57, i32 noundef %46, i32 noundef %47)
  %49 = icmp ne i32 %48, 0
  br i1 %49, label %50, label %60

50:                                               ; preds = %45
  %51 = load ptr, ptr %15, align 8, !tbaa !11
  %52 = load ptr, ptr %11, align 8, !tbaa !11
  %53 = call i32 @test_str_eq(ptr noundef @.str.14, i32 noundef 299, ptr noundef @.str.58, ptr noundef @.str.59, ptr noundef %51, ptr noundef %52)
  %54 = icmp ne i32 %53, 0
  br i1 %54, label %55, label %60

55:                                               ; preds = %50
  %56 = load i32, ptr %20, align 4, !tbaa !13
  %57 = load i32, ptr %8, align 4, !tbaa !13
  %58 = call i32 @test_int_eq(ptr noundef @.str.14, i32 noundef 300, ptr noundef @.str.60, ptr noundef @.str.61, i32 noundef %56, i32 noundef %57)
  %59 = icmp ne i32 %58, 0
  br label %60

60:                                               ; preds = %55, %50, %45, %40, %35, %28
  %61 = phi i1 [ false, %50 ], [ false, %45 ], [ false, %40 ], [ false, %35 ], [ false, %28 ], [ %59, %55 ]
  %62 = zext i1 %61 to i32
  store i32 %62, ptr %21, align 4, !tbaa !13
  %63 = load i32, ptr %21, align 4, !tbaa !13
  %64 = icmp ne i32 %63, 0
  br i1 %64, label %65, label %73

65:                                               ; preds = %60
  %66 = load ptr, ptr %12, align 8, !tbaa !11
  %67 = load i8, ptr %66, align 1, !tbaa !15
  %68 = sext i8 %67 to i32
  %69 = icmp ne i32 %68, 0
  br i1 %69, label %70, label %73

70:                                               ; preds = %65
  %71 = load ptr, ptr %12, align 8, !tbaa !11
  %72 = call i32 @test_str_eq(ptr noundef @.str.14, i32 noundef 302, ptr noundef @.str.62, ptr noundef @.str.63, ptr noundef %71, ptr noundef @.str.64)
  store i32 %72, ptr %21, align 4, !tbaa !13
  br label %73

73:                                               ; preds = %70, %65, %60
  %74 = load i32, ptr %21, align 4, !tbaa !13
  %75 = icmp ne i32 %74, 0
  br i1 %75, label %76, label %84

76:                                               ; preds = %73
  %77 = load ptr, ptr %17, align 8, !tbaa !11
  %78 = load i8, ptr %77, align 1, !tbaa !15
  %79 = sext i8 %78 to i32
  %80 = icmp ne i32 %79, 0
  br i1 %80, label %81, label %84

81:                                               ; preds = %76
  %82 = load ptr, ptr %17, align 8, !tbaa !11
  %83 = call i32 @test_str_eq(ptr noundef @.str.14, i32 noundef 304, ptr noundef @.str.65, ptr noundef @.str.66, ptr noundef %82, ptr noundef @.str.67)
  store i32 %83, ptr %21, align 4, !tbaa !13
  br label %84

84:                                               ; preds = %81, %76, %73
  %85 = load i32, ptr %21, align 4, !tbaa !13
  %86 = icmp ne i32 %85, 0
  br i1 %86, label %87, label %95

87:                                               ; preds = %84
  %88 = load ptr, ptr %16, align 8, !tbaa !11
  %89 = load i8, ptr %88, align 1, !tbaa !15
  %90 = sext i8 %89 to i32
  %91 = icmp ne i32 %90, 0
  br i1 %91, label %92, label %95

92:                                               ; preds = %87
  %93 = load ptr, ptr %16, align 8, !tbaa !11
  %94 = call i32 @test_str_eq(ptr noundef @.str.14, i32 noundef 306, ptr noundef @.str.68, ptr noundef @.str.69, ptr noundef %93, ptr noundef @.str.70)
  store i32 %94, ptr %21, align 4, !tbaa !13
  br label %95

95:                                               ; preds = %92, %87, %84
  %96 = load ptr, ptr %12, align 8, !tbaa !11
  call void @CRYPTO_free(ptr noundef %96, ptr noundef @.str.14, i32 noundef 307)
  %97 = load ptr, ptr %13, align 8, !tbaa !11
  call void @CRYPTO_free(ptr noundef %97, ptr noundef @.str.14, i32 noundef 308)
  %98 = load ptr, ptr %14, align 8, !tbaa !11
  call void @CRYPTO_free(ptr noundef %98, ptr noundef @.str.14, i32 noundef 309)
  %99 = load ptr, ptr %15, align 8, !tbaa !11
  call void @CRYPTO_free(ptr noundef %99, ptr noundef @.str.14, i32 noundef 310)
  %100 = load ptr, ptr %16, align 8, !tbaa !11
  call void @CRYPTO_free(ptr noundef %100, ptr noundef @.str.14, i32 noundef 311)
  %101 = load ptr, ptr %17, align 8, !tbaa !11
  call void @CRYPTO_free(ptr noundef %101, ptr noundef @.str.14, i32 noundef 312)
  %102 = load i32, ptr %21, align 4, !tbaa !13
  store i32 %102, ptr %6, align 4
  store i32 1, ptr %22, align 4
  br label %103

103:                                              ; preds = %95, %27
  call void @llvm.lifetime.end.p0(i64 4, ptr %21) #7
  call void @llvm.lifetime.end.p0(i64 4, ptr %20) #7
  call void @llvm.lifetime.end.p0(i64 4, ptr %19) #7
  call void @llvm.lifetime.end.p0(i64 4, ptr %18) #7
  call void @llvm.lifetime.end.p0(i64 8, ptr %17) #7
  call void @llvm.lifetime.end.p0(i64 8, ptr %16) #7
  call void @llvm.lifetime.end.p0(i64 8, ptr %15) #7
  call void @llvm.lifetime.end.p0(i64 8, ptr %14) #7
  call void @llvm.lifetime.end.p0(i64 8, ptr %13) #7
  call void @llvm.lifetime.end.p0(i64 8, ptr %12) #7
  %104 = load i32, ptr %6, align 4
  ret i32 %104
}