; Function Attrs: nounwind uwtable
define internal fastcc i32 @test_http_url_ok(ptr noundef %0, i32 noundef range(i32 0, 2) %1, ptr noundef %2, ptr noundef %3, ptr noundef %4) unnamed_addr #0 {
  %6 = alloca ptr, align 8
  %7 = alloca ptr, align 8
  %8 = alloca ptr, align 8
  %9 = alloca ptr, align 8
  %10 = alloca ptr, align 8
  %11 = alloca ptr, align 8
  %12 = alloca i32, align 4
  %13 = alloca i32, align 4
  %14 = alloca i32, align 4
  call void @llvm.lifetime.start.p0(i64 8, ptr nonnull %6) #9
  call void @llvm.lifetime.start.p0(i64 8, ptr nonnull %7) #9
  call void @llvm.lifetime.start.p0(i64 8, ptr nonnull %8) #9
  call void @llvm.lifetime.start.p0(i64 8, ptr nonnull %9) #9
  call void @llvm.lifetime.start.p0(i64 8, ptr nonnull %10) #9
  call void @llvm.lifetime.start.p0(i64 8, ptr nonnull %11) #9
  call void @llvm.lifetime.start.p0(i64 4, ptr nonnull %12) #9
  call void @llvm.lifetime.start.p0(i64 4, ptr nonnull %13) #9
  call void @llvm.lifetime.start.p0(i64 4, ptr nonnull %14) #9
  %15 = call i32 (ptr, ptr, ...) @__isoc99_sscanf(ptr noundef %3, ptr noundef nonnull @.str.51, ptr noundef nonnull %12) #9
  %16 = call i32 @test_int_eq(ptr noundef nonnull @.str.14, i32 noundef 292, ptr noundef nonnull @.str.49, ptr noundef nonnull @.str.50, i32 noundef %15, i32 noundef 1) #9
  %.not = icmp eq i32 %16, 0
  br i1 %.not, label %57, label %17

17:                                               ; preds = %5
  %18 = call i32 @OSSL_HTTP_parse_url(ptr noundef %0, ptr noundef nonnull %14, ptr noundef nonnull %6, ptr noundef nonnull %7, ptr noundef nonnull %8, ptr noundef nonnull %13, ptr noundef nonnull %9, ptr noundef nonnull %10, ptr noundef nonnull %11) #9
  %19 = icmp ne i32 %18, 0
  %20 = zext i1 %19 to i32
  %21 = call i32 @test_true(ptr noundef nonnull @.str.14, i32 noundef 295, ptr noundef nonnull @.str.52, i32 noundef %20) #9
  %.not11 = icmp eq i32 %21, 0
  br i1 %.not11, label %.thread30, label %22

22:                                               ; preds = %17
  %23 = load ptr, ptr %7, align 8, !tbaa !11
  %24 = call i32 @test_str_eq(ptr noundef nonnull @.str.14, i32 noundef 296, ptr noundef nonnull @.str.46, ptr noundef nonnull @.str.53, ptr noundef %23, ptr noundef %2) #9
  %.not12 = icmp eq i32 %24, 0
  br i1 %.not12, label %.thread30, label %25

25:                                               ; preds = %22
  %26 = load ptr, ptr %8, align 8, !tbaa !11
  %27 = call i32 @test_str_eq(ptr noundef nonnull @.str.14, i32 noundef 297, ptr noundef nonnull @.str.54, ptr noundef nonnull @.str.55, ptr noundef %26, ptr noundef %3) #9
  %.not13 = icmp eq i32 %27, 0
  br i1 %.not13, label %.thread30, label %28

28:                                               ; preds = %25
  %29 = load i32, ptr %13, align 4, !tbaa !13
  %30 = load i32, ptr %12, align 4, !tbaa !13
  %31 = call i32 @test_int_eq(ptr noundef nonnull @.str.14, i32 noundef 298, ptr noundef nonnull @.str.56, ptr noundef nonnull @.str.57, i32 noundef %29, i32 noundef %30) #9
  %.not14 = icmp eq i32 %31, 0
  br i1 %.not14, label %.thread30, label %32

32:                                               ; preds = %28
  %33 = load ptr, ptr %9, align 8, !tbaa !11
  %34 = call i32 @test_str_eq(ptr noundef nonnull @.str.14, i32 noundef 299, ptr noundef nonnull @.str.58, ptr noundef nonnull @.str.59, ptr noundef %33, ptr noundef %4) #9
  %.not15 = icmp eq i32 %34, 0
  br i1 %.not15, label %.thread30, label %35

35:                                               ; preds = %32
  %36 = load i32, ptr %14, align 4, !tbaa !13
  %37 = call i32 @test_int_eq(ptr noundef nonnull @.str.14, i32 noundef 300, ptr noundef nonnull @.str.60, ptr noundef nonnull @.str.61, i32 noundef %36, i32 noundef %1) #9
  %.not37 = icmp eq i32 %37, 0
  br i1 %.not37, label %.thread30, label %38

38:                                               ; preds = %35
  %39 = load ptr, ptr %6, align 8, !tbaa !11
  %40 = load i8, ptr %39, align 1, !tbaa !15
  %.not16 = icmp eq i8 %40, 0
  br i1 %.not16, label %.thread25, label %41

41:                                               ; preds = %38
  %42 = call i32 @test_str_eq(ptr noundef nonnull @.str.14, i32 noundef 302, ptr noundef nonnull @.str.62, ptr noundef nonnull @.str.63, ptr noundef nonnull %39, ptr noundef nonnull @.str.64) #9
  %.not17 = icmp eq i32 %42, 0
  br i1 %.not17, label %.thread30, label %.thread25

.thread25:                                        ; preds = %38, %41
  %.028 = phi i32 [ %42, %41 ], [ 1, %38 ]
  %43 = load ptr, ptr %11, align 8, !tbaa !11
  %44 = load i8, ptr %43, align 1, !tbaa !15
  %.not18 = icmp eq i8 %44, 0
  br i1 %.not18, label %.thread33, label %45

45:                                               ; preds = %.thread25
  %46 = call i32 @test_str_eq(ptr noundef nonnull @.str.14, i32 noundef 304, ptr noundef nonnull @.str.65, ptr noundef nonnull @.str.66, ptr noundef nonnull %43, ptr noundef nonnull @.str.67) #9
  %.not19 = icmp eq i32 %46, 0
  br i1 %.not19, label %.thread30, label %.thread33

.thread33:                                        ; preds = %.thread25, %45
  %.136 = phi i32 [ %46, %45 ], [ %.028, %.thread25 ]
  %47 = load ptr, ptr %10, align 8, !tbaa !11
  %48 = load i8, ptr %47, align 1, !tbaa !15
  %.not20 = icmp eq i8 %48, 0
  br i1 %.not20, label %.thread30, label %49

49:                                               ; preds = %.thread33
  %50 = call i32 @test_str_eq(ptr noundef nonnull @.str.14, i32 noundef 306, ptr noundef nonnull @.str.68, ptr noundef nonnull @.str.69, ptr noundef nonnull %47, ptr noundef nonnull @.str.70) #9
  br label %.thread30

.thread30:                                        ; preds = %17, %22, %25, %28, %32, %35, %41, %49, %.thread33, %45
  %.2 = phi i32 [ %50, %49 ], [ %.136, %.thread33 ], [ 0, %45 ], [ 0, %41 ], [ 0, %35 ], [ 0, %32 ], [ 0, %28 ], [ 0, %25 ], [ 0, %22 ], [ 0, %17 ]
  %51 = load ptr, ptr %6, align 8, !tbaa !11
  call void @CRYPTO_free(ptr noundef %51, ptr noundef nonnull @.str.14, i32 noundef 307) #9
  %52 = load ptr, ptr %7, align 8, !tbaa !11
  call void @CRYPTO_free(ptr noundef %52, ptr noundef nonnull @.str.14, i32 noundef 308) #9
  %53 = load ptr, ptr %8, align 8, !tbaa !11
  call void @CRYPTO_free(ptr noundef %53, ptr noundef nonnull @.str.14, i32 noundef 309) #9
  %54 = load ptr, ptr %9, align 8, !tbaa !11
  call void @CRYPTO_free(ptr noundef %54, ptr noundef nonnull @.str.14, i32 noundef 310) #9
  %55 = load ptr, ptr %10, align 8, !tbaa !11
  call void @CRYPTO_free(ptr noundef %55, ptr noundef nonnull @.str.14, i32 noundef 311) #9
  %56 = load ptr, ptr %11, align 8, !tbaa !11
  call void @CRYPTO_free(ptr noundef %56, ptr noundef nonnull @.str.14, i32 noundef 312) #9
  br label %57

57:                                               ; preds = %5, %.thread30
  %.010 = phi i32 [ %.2, %.thread30 ], [ 0, %5 ]
  call void @llvm.lifetime.end.p0(i64 4, ptr nonnull %14) #9
  call void @llvm.lifetime.end.p0(i64 4, ptr nonnull %13) #9
  call void @llvm.lifetime.end.p0(i64 4, ptr nonnull %12) #9
  call void @llvm.lifetime.end.p0(i64 8, ptr nonnull %11) #9
  call void @llvm.lifetime.end.p0(i64 8, ptr nonnull %10) #9
  call void @llvm.lifetime.end.p0(i64 8, ptr nonnull %9) #9
  call void @llvm.lifetime.end.p0(i64 8, ptr nonnull %8) #9
  call void @llvm.lifetime.end.p0(i64 8, ptr nonnull %7) #9
  call void @llvm.lifetime.end.p0(i64 8, ptr nonnull %6) #9
  ret i32 %.010
}